target datalayout = "e-m:e-p270:32:32-p271:32:32-p272:64:64-i64:64-i128:128-f80:128-n8:16:32:64-S128"
target triple = "x86_64-pc-linux-gnu"

%class.Metadata = type { ptr }
%class.AccessFlags = type { i32 }
%class.Method = type { %class.Metadata, ptr, ptr, ptr, ptr, %class.AccessFlags, i32, %class.MethodFlags, i16, %class.JfrTraceFlag, ptr, ptr, ptr, ptr }
%class.MethodFlags = type { i32 }
%class.JfrTraceFlag = type { i16 }
%class.ThreadShadow = type <{ ptr, ptr, ptr, i32, [4 x i8] }>
%class.methodHandle = type { ptr, ptr }
%class.ExceptionMark = type { ptr }

; Function Attrs: mustprogress nounwind uwtable
define linkonce_odr hidden noundef ptr @_ZNK12methodHandle12non_null_objEv(ptr noundef nonnull align 8 dereferenceable(16) %0) #1 comdat align 2 {
  %2 = alloca ptr, align 8
  store ptr %0, ptr %2, align 8
  %3 = load ptr, ptr %2, align 8
  %4 = getelementptr inbounds %class.methodHandle, ptr %3, i32 0, i32 0
  %5 = load ptr, ptr %4, align 8
  ret ptr %5
}

; Function Attrs: mustprogress nounwind uwtable
define linkonce_odr hidden noundef zeroext i1 @_ZNK12ThreadShadow21has_pending_exceptionEv(ptr noundef nonnull align 8 dereferenceable(28) %0) #1 comdat align 2 {
  %2 = alloca ptr, align 8
  store ptr %0, ptr %2, align 8
  %3 = load ptr, ptr %2, align 8
  %4 = getelementptr inbounds %class.ThreadShadow, ptr %3, i32 0, i32 1
  %5 = load ptr, ptr %4, align 8
  %6 = icmp ne ptr %5, null
  ret i1 %6
}

; Function Attrs: mustprogress nounwind uwtable
define linkonce_odr hidden noundef ptr @_ZNK6Method11method_dataEv(ptr noundef nonnull align 8 dereferenceable(88) %0) #1 comdat align 2 {
  %2 = alloca ptr, align 8
  store ptr %0, ptr %2, align 8
  %3 = load ptr, ptr %2, align 8
  %4 = getelementptr inbounds %class.Method, ptr %3, i32 0, i32 2
  %5 = load ptr, ptr %4, align 8
  ret ptr %5
}

; Function Attrs: mustprogress nounwind uwtable
define linkonce_odr hidden noundef ptr @_ZNK12methodHandleptEv(ptr noundef nonnull align 8 dereferenceable(16) %0) #1 comdat align 2 {
  %2 = alloca ptr, align 8
  store ptr %0, ptr %2, align 8
  %3 = load ptr, ptr %2, align 8
  %4 = call noundef ptr @_ZNK12methodHandle12non_null_objEv(ptr noundef nonnull align 8 dereferenceable(16) %3)
  ret ptr %4
}

; Function Attrs: mustprogress nounwind uwtable
define linkonce_odr hidden noundef zeroext i1 @_ZNK12methodHandle8not_nullEv(ptr noundef nonnull align 8 dereferenceable(16) %0) #1 comdat align 2 {
  %2 = alloca ptr, align 8
  store ptr %0, ptr %2, align 8
  %3 = load ptr, ptr %2, align 8
  %4 = getelementptr inbounds %class.methodHandle, ptr %3, i32 0, i32 0
  %5 = load ptr, ptr %4, align 8
  %6 = icmp ne ptr %5, null
  ret i1 %6
}

; Function Attrs: mustprogress nounwind uwtable
define hidden void @_ZN18InterpreterRuntime15note_trap_innerEP10JavaThreadiRK12methodHandlei(ptr noundef %0, i32 noundef %1, ptr noundef nonnull align 8 dereferenceable(16) %2, i32 noundef %3) #1 align 2 {
  %5 = alloca ptr, align 8
  %6 = alloca i32, align 4
  %7 = alloca ptr, align 8
  %8 = alloca i32, align 4
  %9 = alloca ptr, align 8
  %10 = alloca %class.ExceptionMark, align 8
  %11 = alloca ptr, align 8
  store ptr %0, ptr %5, align 8
  store i32 %1, ptr %6, align 4
  store ptr %2, ptr %7, align 8
  store i32 %3, ptr %8, align 4
  %12 = load ptr, ptr %7, align 8
  %13 = call noundef zeroext i1 @_ZNK12methodHandle8not_nullEv(ptr noundef nonnull align 8 dereferenceable(16) %12)
  br i1 %13, label %14, label %41

14:                                               ; preds = %4
  %15 = load ptr, ptr %7, align 8
  %16 = call noundef ptr @_ZNK12methodHandleptEv(ptr noundef nonnull align 8 dereferenceable(16) %15)
  %17 = call noundef ptr @_ZNK6Method11method_dataEv(ptr noundef nonnull align 8 dereferenceable(88) %16)
  store ptr %17, ptr %9, align 8
  %18 = load ptr, ptr %9, align 8
  %19 = icmp eq ptr %18, null
  br i1 %19, label %20, label %33

20:                                               ; preds = %14
  %21 = load ptr, ptr %5, align 8
  call void @_ZN13ExceptionMarkC1EP10JavaThread(ptr noundef nonnull align 8 dereferenceable(8) %10, ptr noundef %21)
  %22 = load ptr, ptr %5, align 8
  store ptr %22, ptr %11, align 8
  %23 = load ptr, ptr %7, align 8
  %24 = load ptr, ptr %11, align 8
  call void @_ZN6Method27build_profiling_method_dataERK12methodHandleP10JavaThread(ptr noundef nonnull align 8 dereferenceable(16) %23, ptr noundef %24)
  %25 = load ptr, ptr %11, align 8
  %26 = call noundef zeroext i1 @_ZNK12ThreadShadow21has_pending_exceptionEv(ptr noundef nonnull align 8 dereferenceable(28) %25)
  br i1 %26, label %27, label %29

27:                                               ; preds = %20
  %28 = load ptr, ptr %11, align 8
  call void @_ZN12ThreadShadow23clear_pending_exceptionEv(ptr noundef nonnull align 8 dereferenceable(28) %28)
  br label %29

29:                                               ; preds = %27, %20
  %30 = load ptr, ptr %7, align 8
  %31 = call noundef ptr @_ZNK12methodHandleptEv(ptr noundef nonnull align 8 dereferenceable(16) %30)
  %32 = call noundef ptr @_ZNK6Method11method_dataEv(ptr noundef nonnull align 8 dereferenceable(88) %31)
  store ptr %32, ptr %9, align 8
  call void @_ZN13ExceptionMarkD1Ev(ptr noundef nonnull align 8 dereferenceable(8) %10) #9
  br label %33

33:                                               ; preds = %29, %14
  %34 = load ptr, ptr %9, align 8
  %35 = icmp ne ptr %34, null
  br i1 %35, label %36, label %40

36:                                               ; preds = %33
  %37 = load ptr, ptr %9, align 8
  %38 = load i32, ptr %8, align 4
  %39 = load i32, ptr %6, align 4
  call void @_ZN14Deoptimization35update_method_data_from_interpreterEP10MethodDataii(ptr noundef %37, i32 noundef %38, i32 noundef %39)
  br label %40

40:                                               ; preds = %36, %33
  br label %41

41:                                               ; preds = %40, %4
  ret void
}