; Function Attrs: mustprogress nounwind uwtable
define hidden void @_ZN18InterpreterRuntime15note_trap_innerEP10JavaThreadiRK12methodHandlei(ptr noundef %0, i32 noundef %1, ptr noundef nonnull align 8 dereferenceable(16) %2, i32 noundef %3) local_unnamed_addr #0 align 2 {
  %5 = alloca %class.ExceptionMark, align 8
  %6 = load ptr, ptr %2, align 8
  %.not17 = icmp eq ptr %6, null
  br i1 %.not17, label %19, label %7

7:                                                ; preds = %4
  %8 = getelementptr inbounds i8, ptr %6, i64 16
  %9 = load ptr, ptr %8, align 8
  %10 = icmp eq ptr %9, null
  br i1 %10, label %11, label %.thread

11:                                               ; preds = %7
  call void @_ZN13ExceptionMarkC1EP10JavaThread(ptr noundef nonnull align 8 dereferenceable(8) %5, ptr noundef %0) #13
  call void @_ZN6Method27build_profiling_method_dataERK12methodHandleP10JavaThread(ptr noundef nonnull align 8 dereferenceable(16) %2, ptr noundef %0) #13
  %12 = getelementptr inbounds i8, ptr %0, i64 8
  %13 = load ptr, ptr %12, align 8
  %.not18 = icmp eq ptr %13, null
  br i1 %.not18, label %15, label %14

14:                                               ; preds = %11
  call void @_ZN12ThreadShadow23clear_pending_exceptionEv(ptr noundef nonnull align 8 dereferenceable(28) %0) #13
  br label %15

15:                                               ; preds = %11, %14
  %16 = load ptr, ptr %2, align 8
  %17 = getelementptr inbounds i8, ptr %16, i64 16
  %18 = load ptr, ptr %17, align 8
  call void @_ZN13ExceptionMarkD1Ev(ptr noundef nonnull align 8 dereferenceable(8) %5) #13
  %.not = icmp eq ptr %18, null
  br i1 %.not, label %19, label %.thread

.thread:                                          ; preds = %7, %15
  %.016 = phi ptr [ %18, %15 ], [ %9, %7 ]
  call void @_ZN14Deoptimization35update_method_data_from_interpreterEP10MethodDataii(ptr noundef nonnull %.016, i32 noundef %3, i32 noundef %1) #13
  br label %19

19:                                               ; preds = %15, %.thread, %4
  ret void
}